target datalayout = "e-m:e-p270:32:32-p271:32:32-p272:64:64-i64:64-i128:128-f80:128-n8:16:32:64-S128"
target triple = "x86_64-pc-linux-gnu"

%struct.H5C_cache_entry_t = type { ptr, i64, i64, ptr, i8, ptr, i8, i8, i8, i8, i32, i8, i8, i8, i8, i8, i32, ptr, i32, i32, i32, i32, i32, i8, i8, ptr, ptr, ptr, ptr, ptr, ptr, i8, i32, i8, i64, ptr, i64, i64, i32, i8, i32, i32, i8, ptr, ptr, ptr }

@H5C_init_g = external global i8, align 1
@H5_libterm_g = external global i8, align 1
@.str = private unnamed_addr constant [102 x i8] c"generated/home/dtcxzyw/WorkSpace/Projects/compilers/llvm-opt-benchmark/bench/hdf5/hdf5/src/H5Centry.c\00", align 1
@H5E_CACHE_g = external global i64, align 8
@H5E_CANTALLOC_g = external global i64, align 8
@.str.2 = private unnamed_addr constant [50 x i8] c"memory allocation failed for on disk image buffer\00", align 1
@__func__.H5C__serialize_single_entry = private unnamed_addr constant [28 x i8] c"H5C__serialize_single_entry\00", align 1
@H5E_CANTSERIALIZE_g = external global i64, align 8
@.str.16 = private unnamed_addr constant [37 x i8] c"Can't generate image for cache entry\00", align 1

; Function Attrs: nounwind uwtable
define i32 @H5C__serialize_single_entry(ptr noundef %0, ptr noundef %1, ptr noundef %2) #0 {
  %4 = alloca ptr, align 8
  %5 = alloca ptr, align 8
  %6 = alloca ptr, align 8
  %7 = alloca i32, align 4
  %8 = alloca i8, align 1
  store ptr %0, ptr %4, align 8, !tbaa !3
  store ptr %1, ptr %5, align 8, !tbaa !44
  store ptr %2, ptr %6, align 8, !tbaa !8
  call void @llvm.lifetime.start.p0(i64 4, ptr %7) #7
  store i32 0, ptr %7, align 4, !tbaa !10
  call void @llvm.lifetime.start.p0(i64 1, ptr %8) #7
  store i8 0, ptr %8, align 1, !tbaa !12
  %9 = load i8, ptr @H5C_init_g, align 1, !tbaa !12, !range !16, !noundef !17
  %10 = trunc i8 %9 to i1
  br i1 %10, label %15, label %11

11:                                               ; preds = %3
  %12 = load i8, ptr @H5_libterm_g, align 1, !tbaa !12, !range !16, !noundef !17
  %13 = trunc i8 %12 to i1
  %14 = xor i1 %13, true
  br label %15

15:                                               ; preds = %11, %3
  %16 = phi i1 [ true, %3 ], [ %14, %11 ]
  %17 = xor i1 %16, true
  %18 = xor i1 %17, true
  %19 = zext i1 %18 to i32
  %20 = sext i32 %19 to i64
  %21 = call i64 @llvm.expect.i64(i64 %20, i64 1)
  %22 = icmp ne i64 %21, 0
  br i1 %22, label %23, label %88

23:                                               ; preds = %15
  %24 = load ptr, ptr %6, align 8, !tbaa !8
  %25 = getelementptr inbounds nuw %struct.H5C_cache_entry_t, ptr %24, i32 0, i32 14
  store i8 1, ptr %25, align 1, !tbaa !63
  %26 = load ptr, ptr %6, align 8, !tbaa !8
  %27 = getelementptr inbounds nuw %struct.H5C_cache_entry_t, ptr %26, i32 0, i32 3
  %28 = load ptr, ptr %27, align 8, !tbaa !64
  %29 = icmp eq ptr null, %28
  br i1 %29, label %30, label %59

30:                                               ; preds = %23
  %31 = load ptr, ptr %6, align 8, !tbaa !8
  %32 = getelementptr inbounds nuw %struct.H5C_cache_entry_t, ptr %31, i32 0, i32 2
  %33 = load i64, ptr %32, align 8, !tbaa !65
  %34 = add i64 %33, 0
  %35 = call noalias ptr @malloc(i64 noundef %34) #8
  %36 = load ptr, ptr %6, align 8, !tbaa !8
  %37 = getelementptr inbounds nuw %struct.H5C_cache_entry_t, ptr %36, i32 0, i32 3
  store ptr %35, ptr %37, align 8, !tbaa !64
  %38 = icmp eq ptr null, %35
  br i1 %38, label %39, label %58

39:                                               ; preds = %30
  br label %40

40:                                               ; preds = %39
  br label %41

41:                                               ; preds = %40
  br label %42

42:                                               ; preds = %41
  %43 = load i64, ptr @H5E_CACHE_g, align 8, !tbaa !14
  %44 = load i64, ptr @H5E_CANTALLOC_g, align 8, !tbaa !14
  %45 = call i32 (ptr, ptr, i32, i64, i64, ptr, ...) @H5E_printf_stack(ptr noundef @.str, ptr noundef @__func__.H5C__serialize_single_entry, i32 noundef 1560, i64 noundef %43, i64 noundef %44, ptr noundef @.str.2)
  br label %46

46:                                               ; preds = %42
  br label %47

47:                                               ; preds = %46
  store i8 1, ptr %8, align 1, !tbaa !12
  %48 = load i8, ptr %8, align 1, !tbaa !12, !range !16, !noundef !17
  %49 = trunc i8 %48 to i1
  %50 = zext i1 %49 to i8
  store i8 %50, ptr %8, align 1, !tbaa !12
  br label %51

51:                                               ; preds = %47
  br label %52

52:                                               ; preds = %51
  br label %53

53:                                               ; preds = %52
  store i32 -1, ptr %7, align 4, !tbaa !10
  br label %87

54:                                               ; No predecessors!
  br label %55

55:                                               ; preds = %54
  br label %56

56:                                               ; preds = %55
  br label %57

57:                                               ; preds = %56
  br label %58

58:                                               ; preds = %57, %30
  br label %59

59:                                               ; preds = %58, %23
  %60 = load ptr, ptr %4, align 8, !tbaa !3
  %61 = load ptr, ptr %5, align 8, !tbaa !44
  %62 = load ptr, ptr %6, align 8, !tbaa !8
  %63 = call i32 @H5C__generate_image(ptr noundef %60, ptr noundef %61, ptr noundef %62)
  %64 = icmp slt i32 %63, 0
  br i1 %64, label %65, label %84

65:                                               ; preds = %59
  br label %66

66:                                               ; preds = %65
  br label %67

67:                                               ; preds = %66
  br label %68

68:                                               ; preds = %67
  %69 = load i64, ptr @H5E_CACHE_g, align 8, !tbaa !14
  %70 = load i64, ptr @H5E_CANTSERIALIZE_g, align 8, !tbaa !14
  %71 = call i32 (ptr, ptr, i32, i64, i64, ptr, ...) @H5E_printf_stack(ptr noundef @.str, ptr noundef @__func__.H5C__serialize_single_entry, i32 noundef 1569, i64 noundef %69, i64 noundef %70, ptr noundef @.str.16)
  br label %72

72:                                               ; preds = %68
  br label %73

73:                                               ; preds = %72
  store i8 1, ptr %8, align 1, !tbaa !12
  %74 = load i8, ptr %8, align 1, !tbaa !12, !range !16, !noundef !17
  %75 = trunc i8 %74 to i1
  %76 = zext i1 %75 to i8
  store i8 %76, ptr %8, align 1, !tbaa !12
  br label %77

77:                                               ; preds = %73
  br label %78

78:                                               ; preds = %77
  br label %79

79:                                               ; preds = %78
  store i32 -1, ptr %7, align 4, !tbaa !10
  br label %87

80:                                               ; No predecessors!
  br label %81

81:                                               ; preds = %80
  br label %82

82:                                               ; preds = %81
  br label %83

83:                                               ; preds = %82
  br label %84

84:                                               ; preds = %83, %59
  %85 = load ptr, ptr %6, align 8, !tbaa !8
  %86 = getelementptr inbounds nuw %struct.H5C_cache_entry_t, ptr %85, i32 0, i32 14
  store i8 0, ptr %86, align 1, !tbaa !63
  br label %87

87:                                               ; preds = %84, %79, %53
  br label %88

88:                                               ; preds = %87, %15
  %89 = load i32, ptr %7, align 4, !tbaa !10
  call void @llvm.lifetime.end.p0(i64 1, ptr %8) #7
  call void @llvm.lifetime.end.p0(i64 4, ptr %7) #7
  ret i32 %89
}