; Function Attrs: nounwind uwtable
define range(i32 -1, 1) i32 @H5C__serialize_single_entry(ptr noundef %0, ptr noundef %1, ptr noundef %2) local_unnamed_addr #0 {
  %4 = load i8, ptr @H5C_init_g, align 1, !tbaa !3, !range !7, !noundef !8
  %5 = trunc nuw i8 %4 to i1
  %6 = load i8, ptr @H5_libterm_g, align 1, !range !7
  %7 = trunc nuw i8 %6 to i1
  %8 = xor i1 %7, true
  %9 = select i1 %5, i1 true, i1 %8
  br i1 %9, label %10, label %32, !prof !9

10:                                               ; preds = %3
  %11 = getelementptr inbounds nuw i8, ptr %2, i64 59
  store i8 1, ptr %11, align 1, !tbaa !60
  %12 = getelementptr inbounds nuw i8, ptr %2, i64 24
  %13 = load ptr, ptr %12, align 8, !tbaa !61
  %14 = icmp eq ptr %13, null
  br i1 %14, label %15, label %24

15:                                               ; preds = %10
  %16 = getelementptr inbounds nuw i8, ptr %2, i64 16
  %17 = load i64, ptr %16, align 8, !tbaa !62
  %18 = tail call noalias ptr @malloc(i64 noundef %17) #10
  store ptr %18, ptr %12, align 8, !tbaa !61
  %19 = icmp eq ptr %18, null
  br i1 %19, label %20, label %24

20:                                               ; preds = %15
  %21 = load i64, ptr @H5E_CACHE_g, align 8, !tbaa !59
  %22 = load i64, ptr @H5E_CANTALLOC_g, align 8, !tbaa !59
  %23 = tail call i32 (ptr, ptr, i32, i64, i64, ptr, ...) @H5E_printf_stack(ptr noundef nonnull @.str, ptr noundef nonnull @__func__.H5C__serialize_single_entry, i32 noundef 1560, i64 noundef %21, i64 noundef %22, ptr noundef nonnull @.str.2) #9
  br label %32

24:                                               ; preds = %15, %10
  %25 = tail call fastcc i32 @H5C__generate_image(ptr noundef %0, ptr noundef %1, ptr noundef nonnull %2)
  %26 = icmp slt i32 %25, 0
  br i1 %26, label %27, label %31

27:                                               ; preds = %24
  %28 = load i64, ptr @H5E_CACHE_g, align 8, !tbaa !59
  %29 = load i64, ptr @H5E_CANTSERIALIZE_g, align 8, !tbaa !59
  %30 = tail call i32 (ptr, ptr, i32, i64, i64, ptr, ...) @H5E_printf_stack(ptr noundef nonnull @.str, ptr noundef nonnull @__func__.H5C__serialize_single_entry, i32 noundef 1569, i64 noundef %28, i64 noundef %29, ptr noundef nonnull @.str.16) #9
  br label %32

31:                                               ; preds = %24
  store i8 0, ptr %11, align 1, !tbaa !60
  br label %32

32:                                               ; preds = %20, %27, %31, %3
  %.0 = phi i32 [ -1, %20 ], [ -1, %27 ], [ 0, %31 ], [ 0, %3 ]
  ret i32 %.0
}